; Function Attrs: nounwind uwtable
define dso_local void @_PyErr_SetLocaleString(ptr noundef %0, ptr noundef %1) local_unnamed_addr #0 {
  %3 = tail call ptr @PyUnicode_DecodeLocale(ptr noundef %1, ptr noundef nonnull @.str.2) #17
  %.not = icmp eq ptr %3, null
  br i1 %.not, label %Py_DECREF.exit, label %4

4:                                                ; preds = %2
  %5 = tail call align 8 ptr @llvm.threadlocal.address.p0(ptr align 8 @_Py_tss_tstate)
  %6 = load ptr, ptr %5, align 8, !tbaa !25
  tail call void @_PyErr_SetObject(ptr noundef %6, ptr noundef %0, ptr noundef nonnull %3)
  %7 = load i32, ptr %3, align 8, !tbaa !20
  %.not.i = icmp sgt i32 %7, -1
  br i1 %.not.i, label %8, label %Py_DECREF.exit

8:                                                ; preds = %4
  %9 = add nsw i32 %7, -1
  store i32 %9, ptr %3, align 8, !tbaa !20
  %10 = icmp eq i32 %9, 0
  br i1 %10, label %11, label %Py_DECREF.exit

11:                                               ; preds = %8
  tail call void @_Py_Dealloc(ptr noundef nonnull %3) #17
  br label %Py_DECREF.exit

Py_DECREF.exit:                                   ; preds = %11, %8, %4, %2
  ret void
}